target datalayout = "e-m:e-p270:32:32-p271:32:32-p272:64:64-i64:64-i128:128-f80:128-n8:16:32:64-S128"
target triple = "x86_64-unknown-linux-gnu"

%struct.AddressSpace = type { %struct.rcu_head, ptr, ptr, ptr, i32, i32, ptr, %union.anon.0, %union.anon.1 }
%struct.rcu_head = type { ptr, ptr }
%union.anon.0 = type { %struct.QTailQLink }
%struct.QTailQLink = type { ptr, ptr }
%union.anon.1 = type { %struct.QTailQLink }
%struct.SDHCIState = type { %union.anon, %struct.SDBus, %struct.MemoryRegion, %struct.AddressSpace, ptr, ptr, ptr, ptr, ptr, ptr, i32, i16, i16, i32, i16, i16, [4 x i32], i32, i8, i8, i8, i8, i16, i8, i8, i16, i16, i16, i16, i16, i16, i16, i16, i64, i16, i64, i64, i16, ptr, i32, i16, i8, i8, i8, i32, i8, i8, i8, i8 }
%union.anon = type { %struct.PCIDevice }
%struct.PCIDevice = type { %struct.DeviceState, i8, i8, ptr, ptr, ptr, ptr, ptr, i32, %struct.PCIReqIDCache, [64 x i8], [7 x %struct.PCIIORegion], %struct.AddressSpace, %struct.MemoryRegion, %struct.MemoryRegion, ptr, ptr, [3 x ptr], i8, i8, i32, i8, i32, ptr, ptr, ptr, ptr, ptr, ptr, %struct.MemoryRegion, %struct.MemoryRegion, %struct.MemoryRegion, ptr, i8, i32, i8, %struct.PCIExpressDevice, ptr, ptr, i32, i8, %struct.MemoryRegion, i32, ptr, ptr, ptr, ptr, ptr, i32 }
%struct.DeviceState = type { %struct.Object, ptr, ptr, i8, i8, i64, ptr, i32, i8, ptr, %struct.NamedGPIOListHead, %struct.NamedClockListHead, %struct.BusStateHead, i32, i32, i32, %struct.ResettableState, ptr, %struct.MemReentrancyGuard }
%struct.Object = type { ptr, ptr, ptr, i32, ptr }
%struct.NamedGPIOListHead = type { ptr }
%struct.NamedClockListHead = type { ptr }
%struct.BusStateHead = type { ptr }
%struct.ResettableState = type { i32, i8, i8 }
%struct.MemReentrancyGuard = type { i8 }
%struct.PCIReqIDCache = type { ptr, i32 }
%struct.PCIIORegion = type { i64, i64, i8, ptr, ptr }
%struct.PCIExpressDevice = type { i8, i8, i8, i16, %struct.PCIEAERLog, i16, i16, i16, %struct.PCIESriovPF, %struct.PCIESriovVF }
%struct.PCIEAERLog = type { i16, i16, ptr }
%struct.PCIESriovPF = type { i16, [7 x i8], ptr, ptr }
%struct.PCIESriovVF = type { ptr, i16 }
%struct.SDBus = type { %struct.BusState }
%struct.BusState = type { %struct.Object, ptr, ptr, ptr, i32, i8, i8, i32, %union.BusChildHead, %struct.BusStateEntry, %struct.ResettableState }
%union.BusChildHead = type { %struct.QTailQLink }
%struct.BusStateEntry = type { ptr, ptr }
%struct.MemoryRegion = type { %struct.Object, i8, i8, i8, i8, i8, i8, i8, i8, i8, i8, ptr, ptr, ptr, ptr, ptr, ptr, i32, i128, i64, ptr, i64, i8, i8, i8, i8, i8, ptr, i64, i32, %union.anon.2, %union.anon.3, %union.anon.4, ptr, i32, ptr, ptr, i8 }
%union.anon.2 = type { %struct.QTailQLink }
%union.anon.3 = type { %struct.QTailQLink }
%union.anon.4 = type { %struct.QTailQLink }
%struct.MemTxAttrs = type { i32 }

; Function Attrs: nounwind sspstrong uwtable
define internal i32 @dma_memory_rw_relaxed(ptr noundef %as, i64 noundef %addr, ptr noundef %buf, i64 noundef %len, i32 noundef %dir, i32 %attrs.coerce) #0 {
entry:
  %attrs = alloca %struct.MemTxAttrs, align 4
  %as.addr = alloca ptr, align 8
  %addr.addr = alloca i64, align 8
  %buf.addr = alloca ptr, align 8
  %len.addr = alloca i64, align 8
  %dir.addr = alloca i32, align 4
  %coerce.dive = getelementptr inbounds %struct.MemTxAttrs, ptr %attrs, i32 0, i32 0
  store i32 %attrs.coerce, ptr %coerce.dive, align 4
  store ptr %as, ptr %as.addr, align 8
  store i64 %addr, ptr %addr.addr, align 8
  store ptr %buf, ptr %buf.addr, align 8
  store i64 %len, ptr %len.addr, align 8
  store i32 %dir, ptr %dir.addr, align 4
  %0 = load ptr, ptr %as.addr, align 8
  %1 = load i64, ptr %addr.addr, align 8
  %2 = load ptr, ptr %buf.addr, align 8
  %3 = load i64, ptr %len.addr, align 8
  %4 = load i32, ptr %dir.addr, align 4
  %cmp = icmp eq i32 %4, 1
  %coerce.dive1 = getelementptr inbounds %struct.MemTxAttrs, ptr %attrs, i32 0, i32 0
  %5 = load i32, ptr %coerce.dive1, align 4
  %call = call i32 @address_space_rw(ptr noundef %0, i64 noundef %1, i32 %5, ptr noundef %2, i64 noundef %3, i1 noundef zeroext %cmp)
  ret i32 %call
}

; Function Attrs: nounwind sspstrong uwtable
define internal void @dma_barrier(ptr noundef %as, i32 noundef %dir) #0 {
entry:
  %as.addr = alloca ptr, align 8
  %dir.addr = alloca i32, align 4
  store ptr %as, ptr %as.addr, align 8
  store i32 %dir, ptr %dir.addr, align 4
  call void asm sideeffect "", "~{memory},~{dirflag},~{fpsr},~{flags}"() #11, !srcloc !11
  fence seq_cst
  ret void
}

; Function Attrs: nounwind sspstrong uwtable
define internal i32 @dma_memory_rw(ptr noundef %as, i64 noundef %addr, ptr noundef %buf, i64 noundef %len, i32 noundef %dir, i32 %attrs.coerce) #0 {
entry:
  %attrs = alloca %struct.MemTxAttrs, align 4
  %as.addr = alloca ptr, align 8
  %addr.addr = alloca i64, align 8
  %buf.addr = alloca ptr, align 8
  %len.addr = alloca i64, align 8
  %dir.addr = alloca i32, align 4
  %coerce.dive = getelementptr inbounds %struct.MemTxAttrs, ptr %attrs, i32 0, i32 0
  store i32 %attrs.coerce, ptr %coerce.dive, align 4
  store ptr %as, ptr %as.addr, align 8
  store i64 %addr, ptr %addr.addr, align 8
  store ptr %buf, ptr %buf.addr, align 8
  store i64 %len, ptr %len.addr, align 8
  store i32 %dir, ptr %dir.addr, align 4
  %0 = load ptr, ptr %as.addr, align 8
  %1 = load i32, ptr %dir.addr, align 4
  call void @dma_barrier(ptr noundef %0, i32 noundef %1)
  %2 = load ptr, ptr %as.addr, align 8
  %3 = load i64, ptr %addr.addr, align 8
  %4 = load ptr, ptr %buf.addr, align 8
  %5 = load i64, ptr %len.addr, align 8
  %6 = load i32, ptr %dir.addr, align 4
  %coerce.dive1 = getelementptr inbounds %struct.MemTxAttrs, ptr %attrs, i32 0, i32 0
  %7 = load i32, ptr %coerce.dive1, align 4
  %call = call i32 @dma_memory_rw_relaxed(ptr noundef %2, i64 noundef %3, ptr noundef %4, i64 noundef %5, i32 noundef %6, i32 %7)
  ret i32 %call
}

; Function Attrs: nounwind sspstrong uwtable
define internal i32 @dma_memory_read(ptr noundef %as, i64 noundef %addr, ptr noundef %buf, i64 noundef %len, i32 %attrs.coerce) #0 {
entry:
  %attrs = alloca %struct.MemTxAttrs, align 4
  %as.addr = alloca ptr, align 8
  %addr.addr = alloca i64, align 8
  %buf.addr = alloca ptr, align 8
  %len.addr = alloca i64, align 8
  %coerce.dive = getelementptr inbounds %struct.MemTxAttrs, ptr %attrs, i32 0, i32 0
  store i32 %attrs.coerce, ptr %coerce.dive, align 4
  store ptr %as, ptr %as.addr, align 8
  store i64 %addr, ptr %addr.addr, align 8
  store ptr %buf, ptr %buf.addr, align 8
  store i64 %len, ptr %len.addr, align 8
  %0 = load ptr, ptr %as.addr, align 8
  %1 = load i64, ptr %addr.addr, align 8
  %2 = load ptr, ptr %buf.addr, align 8
  %3 = load i64, ptr %len.addr, align 8
  %coerce.dive1 = getelementptr inbounds %struct.MemTxAttrs, ptr %attrs, i32 0, i32 0
  %4 = load i32, ptr %coerce.dive1, align 4
  %call = call i32 @dma_memory_rw(ptr noundef %0, i64 noundef %1, ptr noundef %2, i64 noundef %3, i32 noundef 0, i32 %4)
  ret i32 %call
}

; Function Attrs: nounwind sspstrong uwtable
define internal i32 @dma_memory_write(ptr noundef %as, i64 noundef %addr, ptr noundef %buf, i64 noundef %len, i32 %attrs.coerce) #0 {
entry:
  %attrs = alloca %struct.MemTxAttrs, align 4
  %as.addr = alloca ptr, align 8
  %addr.addr = alloca i64, align 8
  %buf.addr = alloca ptr, align 8
  %len.addr = alloca i64, align 8
  %coerce.dive = getelementptr inbounds %struct.MemTxAttrs, ptr %attrs, i32 0, i32 0
  store i32 %attrs.coerce, ptr %coerce.dive, align 4
  store ptr %as, ptr %as.addr, align 8
  store i64 %addr, ptr %addr.addr, align 8
  store ptr %buf, ptr %buf.addr, align 8
  store i64 %len, ptr %len.addr, align 8
  %0 = load ptr, ptr %as.addr, align 8
  %1 = load i64, ptr %addr.addr, align 8
  %2 = load ptr, ptr %buf.addr, align 8
  %3 = load i64, ptr %len.addr, align 8
  %coerce.dive1 = getelementptr inbounds %struct.MemTxAttrs, ptr %attrs, i32 0, i32 0
  %4 = load i32, ptr %coerce.dive1, align 4
  %call = call i32 @dma_memory_rw(ptr noundef %0, i64 noundef %1, ptr noundef %2, i64 noundef %3, i32 noundef 1, i32 %4)
  ret i32 %call
}

; Function Attrs: nounwind sspstrong uwtable
define internal void @sdhci_sdma_transfer_single_block(ptr noundef %s) #0 {
entry:
  %s.addr = alloca ptr, align 8
  %datacnt = alloca i32, align 4
  %.compoundliteral = alloca %struct.MemTxAttrs, align 4
  %.compoundliteral40 = alloca %struct.MemTxAttrs, align 4
  store ptr %s, ptr %s.addr, align 8
  %0 = load ptr, ptr %s.addr, align 8
  %blksize = getelementptr inbounds %struct.SDHCIState, ptr %0, i32 0, i32 11
  %1 = load i16, ptr %blksize, align 4
  %conv = zext i16 %1 to i64
  %and = and i64 %conv, 4095
  %conv1 = trunc i64 %and to i32
  store i32 %conv1, ptr %datacnt, align 4
  %2 = load ptr, ptr %s.addr, align 8
  %trnmod = getelementptr inbounds %struct.SDHCIState, ptr %2, i32 0, i32 14
  %3 = load i16, ptr %trnmod, align 4
  %conv2 = zext i16 %3 to i32
  %and3 = and i32 %conv2, 16
  %tobool = icmp ne i32 %and3, 0
  br i1 %tobool, label %if.then, label %if.else

if.then:                                          ; preds = %entry
  %4 = load ptr, ptr %s.addr, align 8
  %sdbus = getelementptr inbounds %struct.SDHCIState, ptr %4, i32 0, i32 1
  %5 = load ptr, ptr %s.addr, align 8
  %fifo_buffer = getelementptr inbounds %struct.SDHCIState, ptr %5, i32 0, i32 38
  %6 = load ptr, ptr %fifo_buffer, align 16
  %7 = load i32, ptr %datacnt, align 4
  %conv4 = zext i32 %7 to i64
  call void @sdbus_read_data(ptr noundef %sdbus, ptr noundef %6, i64 noundef %conv4)
  %8 = load ptr, ptr %s.addr, align 8
  %dma_as = getelementptr inbounds %struct.SDHCIState, ptr %8, i32 0, i32 4
  %9 = load ptr, ptr %dma_as, align 8
  %10 = load ptr, ptr %s.addr, align 8
  %sdmasysad = getelementptr inbounds %struct.SDHCIState, ptr %10, i32 0, i32 10
  %11 = load i32, ptr %sdmasysad, align 8
  %conv5 = zext i32 %11 to i64
  %12 = load ptr, ptr %s.addr, align 8
  %fifo_buffer6 = getelementptr inbounds %struct.SDHCIState, ptr %12, i32 0, i32 38
  %13 = load ptr, ptr %fifo_buffer6, align 16
  %14 = load i32, ptr %datacnt, align 4
  %conv7 = zext i32 %14 to i64
  %bf.load = load i32, ptr %.compoundliteral, align 4
  %bf.clear = and i32 %bf.load, -2
  %bf.set = or i32 %bf.clear, 1
  store i32 %bf.set, ptr %.compoundliteral, align 4
  %bf.load8 = load i32, ptr %.compoundliteral, align 4
  %bf.clear9 = and i32 %bf.load8, -3
  %bf.set10 = or i32 %bf.clear9, 0
  store i32 %bf.set10, ptr %.compoundliteral, align 4
  %bf.load11 = load i32, ptr %.compoundliteral, align 4
  %bf.clear12 = and i32 %bf.load11, -13
  %bf.set13 = or i32 %bf.clear12, 0
  store i32 %bf.set13, ptr %.compoundliteral, align 4
  %bf.load14 = load i32, ptr %.compoundliteral, align 4
  %bf.clear15 = and i32 %bf.load14, -17
  %bf.set16 = or i32 %bf.clear15, 0
  store i32 %bf.set16, ptr %.compoundliteral, align 4
  %bf.load17 = load i32, ptr %.compoundliteral, align 4
  %bf.clear18 = and i32 %bf.load17, -33
  %bf.set19 = or i32 %bf.clear18, 0
  store i32 %bf.set19, ptr %.compoundliteral, align 4
  %bf.load20 = load i32, ptr %.compoundliteral, align 4
  %bf.clear21 = and i32 %bf.load20, -4194241
  %bf.set22 = or i32 %bf.clear21, 0
  store i32 %bf.set22, ptr %.compoundliteral, align 4
  %bf.load23 = load i32, ptr %.compoundliteral, align 4
  %bf.clear24 = and i32 %bf.load23, -4194305
  %bf.set25 = or i32 %bf.clear24, 0
  store i32 %bf.set25, ptr %.compoundliteral, align 4
  %bf.load26 = load i32, ptr %.compoundliteral, align 4
  %bf.clear27 = and i32 %bf.load26, -8388609
  %bf.set28 = or i32 %bf.clear27, 0
  store i32 %bf.set28, ptr %.compoundliteral, align 4
  %bf.load29 = load i32, ptr %.compoundliteral, align 4
  %bf.clear30 = and i32 %bf.load29, -16777217
  %bf.set31 = or i32 %bf.clear30, 0
  store i32 %bf.set31, ptr %.compoundliteral, align 4
  %bf.load32 = load i32, ptr %.compoundliteral, align 4
  %bf.clear33 = and i32 %bf.load32, -33554433
  %bf.set34 = or i32 %bf.clear33, 0
  store i32 %bf.set34, ptr %.compoundliteral, align 4
  %coerce.dive = getelementptr inbounds %struct.MemTxAttrs, ptr %.compoundliteral, i32 0, i32 0
  %15 = load i32, ptr %coerce.dive, align 4
  %call = call i32 @dma_memory_write(ptr noundef %9, i64 noundef %conv5, ptr noundef %13, i64 noundef %conv7, i32 %15)
  br label %if.end

if.else:                                          ; preds = %entry
  %16 = load ptr, ptr %s.addr, align 8
  %dma_as35 = getelementptr inbounds %struct.SDHCIState, ptr %16, i32 0, i32 4
  %17 = load ptr, ptr %dma_as35, align 8
  %18 = load ptr, ptr %s.addr, align 8
  %sdmasysad36 = getelementptr inbounds %struct.SDHCIState, ptr %18, i32 0, i32 10
  %19 = load i32, ptr %sdmasysad36, align 8
  %conv37 = zext i32 %19 to i64
  %20 = load ptr, ptr %s.addr, align 8
  %fifo_buffer38 = getelementptr inbounds %struct.SDHCIState, ptr %20, i32 0, i32 38
  %21 = load ptr, ptr %fifo_buffer38, align 16
  %22 = load i32, ptr %datacnt, align 4
  %conv39 = zext i32 %22 to i64
  %bf.load41 = load i32, ptr %.compoundliteral40, align 4
  %bf.clear42 = and i32 %bf.load41, -2
  %bf.set43 = or i32 %bf.clear42, 1
  store i32 %bf.set43, ptr %.compoundliteral40, align 4
  %bf.load44 = load i32, ptr %.compoundliteral40, align 4
  %bf.clear45 = and i32 %bf.load44, -3
  %bf.set46 = or i32 %bf.clear45, 0
  store i32 %bf.set46, ptr %.compoundliteral40, align 4
  %bf.load47 = load i32, ptr %.compoundliteral40, align 4
  %bf.clear48 = and i32 %bf.load47, -13
  %bf.set49 = or i32 %bf.clear48, 0
  store i32 %bf.set49, ptr %.compoundliteral40, align 4
  %bf.load50 = load i32, ptr %.compoundliteral40, align 4
  %bf.clear51 = and i32 %bf.load50, -17
  %bf.set52 = or i32 %bf.clear51, 0
  store i32 %bf.set52, ptr %.compoundliteral40, align 4
  %bf.load53 = load i32, ptr %.compoundliteral40, align 4
  %bf.clear54 = and i32 %bf.load53, -33
  %bf.set55 = or i32 %bf.clear54, 0
  store i32 %bf.set55, ptr %.compoundliteral40, align 4
  %bf.load56 = load i32, ptr %.compoundliteral40, align 4
  %bf.clear57 = and i32 %bf.load56, -4194241
  %bf.set58 = or i32 %bf.clear57, 0
  store i32 %bf.set58, ptr %.compoundliteral40, align 4
  %bf.load59 = load i32, ptr %.compoundliteral40, align 4
  %bf.clear60 = and i32 %bf.load59, -4194305
  %bf.set61 = or i32 %bf.clear60, 0
  store i32 %bf.set61, ptr %.compoundliteral40, align 4
  %bf.load62 = load i32, ptr %.compoundliteral40, align 4
  %bf.clear63 = and i32 %bf.load62, -8388609
  %bf.set64 = or i32 %bf.clear63, 0
  store i32 %bf.set64, ptr %.compoundliteral40, align 4
  %bf.load65 = load i32, ptr %.compoundliteral40, align 4
  %bf.clear66 = and i32 %bf.load65, -16777217
  %bf.set67 = or i32 %bf.clear66, 0
  store i32 %bf.set67, ptr %.compoundliteral40, align 4
  %bf.load68 = load i32, ptr %.compoundliteral40, align 4
  %bf.clear69 = and i32 %bf.load68, -33554433
  %bf.set70 = or i32 %bf.clear69, 0
  store i32 %bf.set70, ptr %.compoundliteral40, align 4
  %coerce.dive71 = getelementptr inbounds %struct.MemTxAttrs, ptr %.compoundliteral40, i32 0, i32 0
  %23 = load i32, ptr %coerce.dive71, align 4
  %call72 = call i32 @dma_memory_read(ptr noundef %17, i64 noundef %conv37, ptr noundef %21, i64 noundef %conv39, i32 %23)
  %24 = load ptr, ptr %s.addr, align 8
  %sdbus73 = getelementptr inbounds %struct.SDHCIState, ptr %24, i32 0, i32 1
  %25 = load ptr, ptr %s.addr, align 8
  %fifo_buffer74 = getelementptr inbounds %struct.SDHCIState, ptr %25, i32 0, i32 38
  %26 = load ptr, ptr %fifo_buffer74, align 16
  %27 = load i32, ptr %datacnt, align 4
  %conv75 = zext i32 %27 to i64
  call void @sdbus_write_data(ptr noundef %sdbus73, ptr noundef %26, i64 noundef %conv75)
  br label %if.end

if.end:                                           ; preds = %if.else, %if.then
  %28 = load ptr, ptr %s.addr, align 8
  %blkcnt = getelementptr inbounds %struct.SDHCIState, ptr %28, i32 0, i32 12
  %29 = load i16, ptr %blkcnt, align 2
  %dec = add i16 %29, -1
  store i16 %dec, ptr %blkcnt, align 2
  %30 = load ptr, ptr %s.addr, align 8
  call void @sdhci_end_transfer(ptr noundef %30)
  ret void
}