; Function Attrs: nounwind sspstrong uwtable
define internal fastcc void @sdhci_sdma_transfer_single_block(ptr noundef %s) unnamed_addr #0 {
entry:
  %blksize = getelementptr inbounds nuw i8, ptr %s, i64 3148
  %0 = load i16, ptr %blksize, align 4
  %1 = and i16 %0, 4095
  %trnmod = getelementptr inbounds nuw i8, ptr %s, i64 3156
  %2 = load i16, ptr %trnmod, align 4
  %3 = and i16 %2, 16
  %tobool.not = icmp eq i16 %3, 0
  br i1 %tobool.not, label %if.else, label %if.then

if.then:                                          ; preds = %entry
  %sdbus = getelementptr inbounds nuw i8, ptr %s, i64 2608
  %fifo_buffer = getelementptr inbounds nuw i8, ptr %s, i64 3248
  %4 = load ptr, ptr %fifo_buffer, align 16
  %conv4 = zext nneg i16 %1 to i64
  tail call void @sdbus_read_data(ptr noundef nonnull %sdbus, ptr noundef %4, i64 noundef %conv4) #12
  %dma_as = getelementptr inbounds nuw i8, ptr %s, i64 3096
  %5 = load ptr, ptr %dma_as, align 8
  %sdmasysad = getelementptr inbounds nuw i8, ptr %s, i64 3144
  %6 = load i32, ptr %sdmasysad, align 8
  %conv5 = zext i32 %6 to i64
  %7 = load ptr, ptr %fifo_buffer, align 16
  tail call void asm sideeffect "", "~{memory},~{dirflag},~{fpsr},~{flags}"() #12, !srcloc !5
  fence seq_cst
  %call.i.i.i = tail call i32 @address_space_rw(ptr noundef %5, i64 noundef %conv5, i32 1, ptr noundef %7, i64 noundef range(i64 0, 4294967296) %conv4, i1 noundef zeroext true) #12
  br label %if.end

if.else:                                          ; preds = %entry
  %dma_as35 = getelementptr inbounds nuw i8, ptr %s, i64 3096
  %8 = load ptr, ptr %dma_as35, align 8
  %sdmasysad36 = getelementptr inbounds nuw i8, ptr %s, i64 3144
  %9 = load i32, ptr %sdmasysad36, align 8
  %conv37 = zext i32 %9 to i64
  %fifo_buffer38 = getelementptr inbounds nuw i8, ptr %s, i64 3248
  %10 = load ptr, ptr %fifo_buffer38, align 16
  %conv39 = zext nneg i16 %1 to i64
  tail call void asm sideeffect "", "~{memory},~{dirflag},~{fpsr},~{flags}"() #12, !srcloc !5
  fence seq_cst
  %call.i.i.i37 = tail call i32 @address_space_rw(ptr noundef %8, i64 noundef %conv37, i32 1, ptr noundef %10, i64 noundef range(i64 0, 4294967296) %conv39, i1 noundef zeroext false) #12
  %sdbus73 = getelementptr inbounds nuw i8, ptr %s, i64 2608
  %11 = load ptr, ptr %fifo_buffer38, align 16
  tail call void @sdbus_write_data(ptr noundef nonnull %sdbus73, ptr noundef %11, i64 noundef %conv39) #12
  br label %if.end

if.end:                                           ; preds = %if.else, %if.then
  %blkcnt = getelementptr inbounds nuw i8, ptr %s, i64 3150
  %12 = load i16, ptr %blkcnt, align 2
  %dec = add i16 %12, -1
  store i16 %dec, ptr %blkcnt, align 2
  tail call fastcc void @sdhci_end_transfer(ptr noundef nonnull %s)
  ret void
}